; Function Attrs: mustprogress uwtable
define { i64, i64 } @_ZN3re28Compiler7DotStarEv(ptr nocapture noundef nonnull align 8 dereferenceable(212) %this) local_unnamed_addr #0 align 2 {
entry:
  %retval.i.i = alloca %"struct.re2::Frag", align 8
  %retval.i = alloca %"struct.re2::Frag", align 8
  call void @llvm.lifetime.start.p0(i64 16, ptr nonnull %retval.i)
  %call.i = tail call noundef i32 @_ZN3re28Compiler9AllocInstEi(ptr noundef nonnull align 8 dereferenceable(212) %this, i32 noundef 1)
  %cmp.i = icmp slt i32 %call.i, 0
  br i1 %cmp.i, label %if.then.i, label %if.end.i

if.then.i:                                        ; preds = %entry
  call void @llvm.lifetime.start.p0(i64 16, ptr nonnull %retval.i.i)
  store i32 0, ptr %retval.i.i, align 8
  %retval.i.i.4.retval.i.i.4.retval.i.i.4.retval.i.4.retval.i.4.retval.4.retval.4.end.i.sroa_idx = getelementptr inbounds i8, ptr %retval.i.i, i64 4
  store i64 0, ptr %retval.i.i.4.retval.i.i.4.retval.i.i.4.retval.i.4.retval.i.4.retval.4.retval.4.end.i.sroa_idx, align 4
  %retval.i.i.12.retval.i.i.12.retval.i.i.12.retval.i.12.retval.i.12.retval.12.retval.12.nullable.i.sroa_idx = getelementptr inbounds i8, ptr %retval.i.i, i64 12
  store i8 0, ptr %retval.i.i.12.retval.i.i.12.retval.i.i.12.retval.i.12.retval.i.12.retval.12.retval.12.nullable.i.sroa_idx, align 4
  %retval.i.i.0.retval.i.i.0.retval.i.i.0.retval.i.0.retval.i.0.retval.0.retval.0..fca.0.load.i.i = load i64, ptr %retval.i.i, align 8
  %retval.i.i.8.retval.i.i.8.retval.i.i.8.retval.i.8.retval.i.8.retval.8.retval.8..fca.1.gep.sroa_idx = getelementptr inbounds i8, ptr %retval.i.i, i64 8
  %retval.i.i.8.retval.i.i.8.retval.i.i.8.retval.i.8.retval.i.8.retval.8.retval.8..fca.1.load.i.i = load i64, ptr %retval.i.i.8.retval.i.i.8.retval.i.i.8.retval.i.8.retval.i.8.retval.8.retval.8..fca.1.gep.sroa_idx, align 8
  call void @llvm.lifetime.end.p0(i64 16, ptr nonnull %retval.i.i)
  br label %_ZN3re28Compiler9ByteRangeEiib.exit

if.end.i:                                         ; preds = %entry
  %conv.i.i = zext nneg i32 %call.i to i64
  %add.ptr.i.i.i.i.i.i.i.i = getelementptr inbounds i8, ptr %this, i64 128
  %0 = load ptr, ptr %add.ptr.i.i.i.i.i.i.i.i, align 8
  %arrayidx.i.i.i = getelementptr inbounds %"class.re2::Prog::Inst", ptr %0, i64 %conv.i.i
  tail call void @_ZN3re24Prog4Inst13InitByteRangeEiiij(ptr noundef nonnull align 4 dereferenceable(8) %arrayidx.i.i.i, i32 noundef 0, i32 noundef 255, i32 noundef 0, i32 noundef 0)
  %shl.i = shl nuw i32 %call.i, 1
  %retval.sroa.2.0.insert.ext.i.i = zext i32 %shl.i to i64
  %retval.sroa.0.0.insert.insert.i.i = mul nuw i64 %retval.sroa.2.0.insert.ext.i.i, 4294967297
  store i32 %call.i, ptr %retval.i, align 8
  %retval.i.4.retval.i.4.retval.i.4.retval.4.retval.4.end3.i.sroa_idx = getelementptr inbounds i8, ptr %retval.i, i64 4
  store i64 %retval.sroa.0.0.insert.insert.i.i, ptr %retval.i.4.retval.i.4.retval.i.4.retval.4.retval.4.end3.i.sroa_idx, align 4
  %retval.i.12.retval.i.12.retval.i.12.retval.12.retval.12.nullable4.i.sroa_idx = getelementptr inbounds i8, ptr %retval.i, i64 12
  store i8 0, ptr %retval.i.12.retval.i.12.retval.i.12.retval.12.retval.12.nullable4.i.sroa_idx, align 4
  %retval.i.0.retval.i.0.retval.i.0.retval.0.retval.0..fca.0.load.pre.i = load i64, ptr %retval.i, align 8
  %retval.i.8.retval.i.8.retval.i.8.retval.8.retval.8..fca.1.gep.sroa_idx = getelementptr inbounds i8, ptr %retval.i, i64 8
  %retval.i.8.retval.i.8.retval.i.8.retval.8.retval.8..fca.1.load.pre.i = load i64, ptr %retval.i.8.retval.i.8.retval.i.8.retval.8.retval.8..fca.1.gep.sroa_idx, align 8
  br label %_ZN3re28Compiler9ByteRangeEiib.exit

_ZN3re28Compiler9ByteRangeEiib.exit:              ; preds = %if.then.i, %if.end.i
  %retval.8.retval.8..fca.1.load.i = phi i64 [ %retval.i.8.retval.i.8.retval.i.8.retval.8.retval.8..fca.1.load.pre.i, %if.end.i ], [ %retval.i.i.8.retval.i.i.8.retval.i.i.8.retval.i.8.retval.i.8.retval.8.retval.8..fca.1.load.i.i, %if.then.i ]
  %retval.0.retval.0..fca.0.load.i = phi i64 [ %retval.i.0.retval.i.0.retval.i.0.retval.0.retval.0..fca.0.load.pre.i, %if.end.i ], [ %retval.i.i.0.retval.i.i.0.retval.i.i.0.retval.i.0.retval.i.0.retval.0.retval.0..fca.0.load.i.i, %if.then.i ]
  call void @llvm.lifetime.end.p0(i64 16, ptr nonnull %retval.i)
  %call2 = tail call { i64, i64 } @_ZN3re28Compiler4StarENS_4FragEb(ptr noundef nonnull align 8 dereferenceable(212) %this, i64 %retval.0.retval.0..fca.0.load.i, i64 %retval.8.retval.8..fca.1.load.i, i1 noundef zeroext true)
  ret { i64, i64 } %call2
}